target datalayout = "e-m:e-p270:32:32-p271:32:32-p272:64:64-i64:64-i128:128-f80:128-n8:16:32:64-S128"
target triple = "x86_64-unknown-linux-gnu"

; Function Attrs: mustprogress uwtable
define noundef zeroext i1 @_ZN6google8protobuf2io9Tokenizer13TryParseFloatERKNSt7__cxx1112basic_stringIcSt11char_traitsIcESaIcEEEPd(ptr noundef nonnull align 8 dereferenceable(32) %text, ptr noundef %result) #6 align 2 {
entry:
  %text.addr = alloca ptr, align 8
  %result.addr = alloca ptr, align 8
  %start = alloca ptr, align 8
  %end = alloca ptr, align 8
  store ptr %text, ptr %text.addr, align 8
  store ptr %result, ptr %result.addr, align 8
  %0 = load ptr, ptr %text.addr, align 8
  %call = call noundef ptr @_ZNKSt7__cxx1112basic_stringIcSt11char_traitsIcESaIcEE5c_strEv(ptr noundef nonnull align 8 dereferenceable(32) %0) #3
  store ptr %call, ptr %start, align 8
  %1 = load ptr, ptr %start, align 8
  %call1 = call noundef double @_ZN6google8protobuf2io14NoLocaleStrtodEPKcPPc(ptr noundef %1, ptr noundef %end)
  %2 = load ptr, ptr %result.addr, align 8
  store double %call1, ptr %2, align 8
  %3 = load ptr, ptr %end, align 8
  %4 = load i8, ptr %3, align 1
  %conv = sext i8 %4 to i32
  %cmp = icmp eq i32 %conv, 101
  br i1 %cmp, label %if.then, label %lor.lhs.false

lor.lhs.false:                                    ; preds = %entry
  %5 = load ptr, ptr %end, align 8
  %6 = load i8, ptr %5, align 1
  %conv2 = sext i8 %6 to i32
  %cmp3 = icmp eq i32 %conv2, 69
  br i1 %cmp3, label %if.then, label %if.end11

if.then:                                          ; preds = %lor.lhs.false, %entry
  %7 = load ptr, ptr %end, align 8
  %incdec.ptr = getelementptr inbounds i8, ptr %7, i32 1
  store ptr %incdec.ptr, ptr %end, align 8
  %8 = load ptr, ptr %end, align 8
  %9 = load i8, ptr %8, align 1
  %conv4 = sext i8 %9 to i32
  %cmp5 = icmp eq i32 %conv4, 45
  br i1 %cmp5, label %if.then9, label %lor.lhs.false6

lor.lhs.false6:                                   ; preds = %if.then
  %10 = load ptr, ptr %end, align 8
  %11 = load i8, ptr %10, align 1
  %conv7 = sext i8 %11 to i32
  %cmp8 = icmp eq i32 %conv7, 43
  br i1 %cmp8, label %if.then9, label %if.end

if.then9:                                         ; preds = %lor.lhs.false6, %if.then
  %12 = load ptr, ptr %end, align 8
  %incdec.ptr10 = getelementptr inbounds i8, ptr %12, i32 1
  store ptr %incdec.ptr10, ptr %end, align 8
  br label %if.end

if.end:                                           ; preds = %if.then9, %lor.lhs.false6
  br label %if.end11

if.end11:                                         ; preds = %if.end, %lor.lhs.false
  %13 = load ptr, ptr %end, align 8
  %14 = load i8, ptr %13, align 1
  %conv12 = sext i8 %14 to i32
  %cmp13 = icmp eq i32 %conv12, 102
  br i1 %cmp13, label %if.then17, label %lor.lhs.false14

lor.lhs.false14:                                  ; preds = %if.end11
  %15 = load ptr, ptr %end, align 8
  %16 = load i8, ptr %15, align 1
  %conv15 = sext i8 %16 to i32
  %cmp16 = icmp eq i32 %conv15, 70
  br i1 %cmp16, label %if.then17, label %if.end19

if.then17:                                        ; preds = %lor.lhs.false14, %if.end11
  %17 = load ptr, ptr %end, align 8
  %incdec.ptr18 = getelementptr inbounds i8, ptr %17, i32 1
  store ptr %incdec.ptr18, ptr %end, align 8
  br label %if.end19

if.end19:                                         ; preds = %if.then17, %lor.lhs.false14
  %18 = load ptr, ptr %end, align 8
  %19 = load ptr, ptr %start, align 8
  %sub.ptr.lhs.cast = ptrtoint ptr %18 to i64
  %sub.ptr.rhs.cast = ptrtoint ptr %19 to i64
  %sub.ptr.sub = sub i64 %sub.ptr.lhs.cast, %sub.ptr.rhs.cast
  %20 = load ptr, ptr %text.addr, align 8
  %call20 = call noundef i64 @_ZNKSt7__cxx1112basic_stringIcSt11char_traitsIcESaIcEE4sizeEv(ptr noundef nonnull align 8 dereferenceable(32) %20) #3
  %cmp21 = icmp eq i64 %sub.ptr.sub, %call20
  br i1 %cmp21, label %land.rhs, label %land.end

land.rhs:                                         ; preds = %if.end19
  %21 = load ptr, ptr %start, align 8
  %22 = load i8, ptr %21, align 1
  %conv22 = sext i8 %22 to i32
  %cmp23 = icmp ne i32 %conv22, 45
  br label %land.end

land.end:                                         ; preds = %land.rhs, %if.end19
  %23 = phi i1 [ false, %if.end19 ], [ %cmp23, %land.rhs ]
  ret i1 %23
}