; Function Attrs: mustprogress uwtable
define noundef zeroext i1 @_ZN6google8protobuf2io9Tokenizer13TryParseFloatERKNSt7__cxx1112basic_stringIcSt11char_traitsIcESaIcEEEPd(ptr noundef nonnull align 8 dereferenceable(32) %text, ptr noundef writeonly captures(none) initializes((0, 8)) %result) local_unnamed_addr #6 align 2 {
entry:
  %end = alloca ptr, align 8
  %call = tail call noundef ptr @_ZNKSt7__cxx1112basic_stringIcSt11char_traitsIcESaIcEE5c_strEv(ptr noundef nonnull align 8 dereferenceable(32) %text) #23
  %call1 = call noundef double @_ZN6google8protobuf2io14NoLocaleStrtodEPKcPPc(ptr noundef %call, ptr noundef nonnull %end)
  store double %call1, ptr %result, align 8
  %0 = load ptr, ptr %end, align 8
  %1 = load i8, ptr %0, align 1
  switch i8 %1, label %if.end11 [
    i8 101, label %if.then
    i8 69, label %if.then
  ]

if.then:                                          ; preds = %entry, %entry
  %incdec.ptr = getelementptr inbounds nuw i8, ptr %0, i64 1
  store ptr %incdec.ptr, ptr %end, align 8
  %2 = load i8, ptr %incdec.ptr, align 1
  switch i8 %2, label %if.end11 [
    i8 45, label %if.then9
    i8 43, label %if.then9
  ]

if.then9:                                         ; preds = %if.then, %if.then
  %incdec.ptr10 = getelementptr inbounds nuw i8, ptr %0, i64 2
  store ptr %incdec.ptr10, ptr %end, align 8
  %.pre = load i8, ptr %incdec.ptr10, align 1
  br label %if.end11

if.end11:                                         ; preds = %if.then, %entry, %if.then9
  %3 = phi i8 [ %2, %if.then ], [ %1, %entry ], [ %.pre, %if.then9 ]
  %4 = phi ptr [ %incdec.ptr, %if.then ], [ %0, %entry ], [ %incdec.ptr10, %if.then9 ]
  switch i8 %3, label %if.end19 [
    i8 102, label %if.then17
    i8 70, label %if.then17
  ]

if.then17:                                        ; preds = %if.end11, %if.end11
  %incdec.ptr18 = getelementptr inbounds nuw i8, ptr %4, i64 1
  store ptr %incdec.ptr18, ptr %end, align 8
  br label %if.end19

if.end19:                                         ; preds = %if.end11, %if.then17
  %5 = phi ptr [ %4, %if.end11 ], [ %incdec.ptr18, %if.then17 ]
  %sub.ptr.lhs.cast = ptrtoint ptr %5 to i64
  %sub.ptr.rhs.cast = ptrtoint ptr %call to i64
  %sub.ptr.sub = sub i64 %sub.ptr.lhs.cast, %sub.ptr.rhs.cast
  %call20 = call noundef i64 @_ZNKSt7__cxx1112basic_stringIcSt11char_traitsIcESaIcEE4sizeEv(ptr noundef nonnull align 8 dereferenceable(32) %text) #23
  %cmp21 = icmp eq i64 %sub.ptr.sub, %call20
  br i1 %cmp21, label %land.rhs, label %land.end

land.rhs:                                         ; preds = %if.end19
  %6 = load i8, ptr %call, align 1
  %cmp23 = icmp ne i8 %6, 45
  br label %land.end

land.end:                                         ; preds = %land.rhs, %if.end19
  %7 = phi i1 [ false, %if.end19 ], [ %cmp23, %land.rhs ]
  ret i1 %7
}